target datalayout = "e-m:e-p270:32:32-p271:32:32-p272:64:64-i64:64-i128:128-f80:128-n8:16:32:64-S128"
target triple = "x86_64-pc-linux-gnu"

%struct._zend_op = type { ptr, %union._znode_op, %union._znode_op, %union._znode_op, i32, i32, i8, i8, i8, i8 }
%union._znode_op = type { i32 }

; Function Attrs: nounwind uwtable
define internal void @zend_delete_call_instructions(ptr noundef %0, ptr noundef %1) #0 {
  %3 = alloca ptr, align 8
  %4 = alloca ptr, align 8
  %5 = alloca i32, align 4
  store ptr %0, ptr %3, align 8
  store ptr %1, ptr %4, align 8
  store i32 0, ptr %5, align 4
  br label %6

6:                                                ; preds = %51, %2
  %7 = load ptr, ptr %4, align 8
  %8 = getelementptr inbounds %struct._zend_op, ptr %7, i32 0, i32 6
  %9 = load i8, ptr %8, align 4
  %10 = zext i8 %9 to i32
  switch i32 %10, label %51 [
    i32 59, label %11
    i32 69, label %11
    i32 113, label %11
    i32 112, label %11
    i32 61, label %11
    i32 68, label %38
    i32 128, label %38
    i32 118, label %38
    i32 60, label %41
    i32 129, label %41
    i32 130, label %41
    i32 131, label %41
    i32 65, label %44
    i32 117, label %44
  ]

11:                                               ; preds = %6, %6, %6, %6, %6
  %12 = load i32, ptr %5, align 4
  %13 = icmp eq i32 %12, 0
  br i1 %13, label %14, label %37

14:                                               ; preds = %11
  br label %15

15:                                               ; preds = %14
  %16 = load ptr, ptr %4, align 8
  %17 = getelementptr inbounds %struct._zend_op, ptr %16, i32 0, i32 6
  store i8 0, ptr %17, align 4
  br label %18

18:                                               ; preds = %15
  %19 = load ptr, ptr %4, align 8
  %20 = getelementptr inbounds %struct._zend_op, ptr %19, i32 0, i32 7
  store i8 0, ptr %20, align 1
  %21 = load ptr, ptr %4, align 8
  %22 = getelementptr inbounds %struct._zend_op, ptr %21, i32 0, i32 1
  store i32 -1, ptr %22, align 8
  br label %23

23:                                               ; preds = %18
  br label %24

24:                                               ; preds = %23
  %25 = load ptr, ptr %4, align 8
  %26 = getelementptr inbounds %struct._zend_op, ptr %25, i32 0, i32 8
  store i8 0, ptr %26, align 2
  %27 = load ptr, ptr %4, align 8
  %28 = getelementptr inbounds %struct._zend_op, ptr %27, i32 0, i32 2
  store i32 -1, ptr %28, align 4
  br label %29

29:                                               ; preds = %24
  br label %30

30:                                               ; preds = %29
  %31 = load ptr, ptr %4, align 8
  %32 = getelementptr inbounds %struct._zend_op, ptr %31, i32 0, i32 9
  store i8 0, ptr %32, align 1
  %33 = load ptr, ptr %4, align 8
  %34 = getelementptr inbounds %struct._zend_op, ptr %33, i32 0, i32 3
  store i32 -1, ptr %34, align 8
  br label %35

35:                                               ; preds = %30
  br label %36

36:                                               ; preds = %35
  ret void

37:                                               ; preds = %11
  br label %38

38:                                               ; preds = %37, %6, %6, %6
  %39 = load i32, ptr %5, align 4
  %40 = add nsw i32 %39, -1
  store i32 %40, ptr %5, align 4
  br label %51

41:                                               ; preds = %6, %6, %6, %6
  %42 = load i32, ptr %5, align 4
  %43 = add nsw i32 %42, 1
  store i32 %43, ptr %5, align 4
  br label %51

44:                                               ; preds = %6, %6
  %45 = load i32, ptr %5, align 4
  %46 = icmp eq i32 %45, 0
  br i1 %46, label %47, label %50

47:                                               ; preds = %44
  %48 = load ptr, ptr %3, align 8
  %49 = load ptr, ptr %4, align 8
  call void @zend_optimizer_convert_to_free_op1(ptr noundef %48, ptr noundef %49)
  br label %50

50:                                               ; preds = %47, %44
  br label %51

51:                                               ; preds = %50, %41, %38, %6
  %52 = load ptr, ptr %4, align 8
  %53 = getelementptr inbounds %struct._zend_op, ptr %52, i32 -1
  store ptr %53, ptr %4, align 8
  br label %6
}